; Function Attrs: mustprogress uwtable
define dso_local noundef zeroext i1 @_ZN25JSONStringValueSerializer9SerializeERKN4base5ValueE(ptr nocapture noundef nonnull readonly align 8 dereferenceable(17) %this, ptr noundef nonnull align 8 dereferenceable(12) %root) unnamed_addr #4 align 2 {
entry:
  %json_string_.i = getelementptr inbounds i8, ptr %this, i64 8
  %0 = load ptr, ptr %json_string_.i, align 8
  %tobool.not.i = icmp eq ptr %0, null
  br i1 %tobool.not.i, label %_ZN25JSONStringValueSerializer17SerializeInternalERKN4base5ValueEb.exit, label %if.end.i

if.end.i:                                         ; preds = %entry
  %pretty_print_.i = getelementptr inbounds i8, ptr %this, i64 16
  %1 = load i8, ptr %pretty_print_.i, align 8
  %2 = shl i8 %1, 2
  %3 = and i8 %2, 4
  %options.1.i = zext nneg i8 %3 to i32
  %call.i = tail call noundef zeroext i1 @_ZN4base10JSONWriter16WriteWithOptionsERKNS_5ValueEiPNSt7__cxx1112basic_stringIcSt11char_traitsIcESaIcEEE(ptr noundef nonnull align 8 dereferenceable(12) %root, i32 noundef %options.1.i, ptr noundef nonnull %0)
  br label %_ZN25JSONStringValueSerializer17SerializeInternalERKN4base5ValueEb.exit

_ZN25JSONStringValueSerializer17SerializeInternalERKN4base5ValueEb.exit: ; preds = %entry, %if.end.i
  %retval.0.i = phi i1 [ %call.i, %if.end.i ], [ false, %entry ]
  ret i1 %retval.0.i
}